; Function Attrs: mustprogress nounwind uwtable
define void @_ZN7mitsuba6Thread17set_file_resolverEPNS_12FileResolverE(ptr nocapture noundef nonnull readonly align 8 dereferenceable(24) %0, ptr noundef %1) local_unnamed_addr #0 align 2 {
  %3 = getelementptr inbounds i8, ptr %0, i64 16
  %4 = load ptr, ptr %3, align 8
  %5 = getelementptr inbounds i8, ptr %4, i64 72
  %6 = load ptr, ptr %5, align 8
  %.not.i = icmp eq ptr %6, %1
  br i1 %.not.i, label %_ZN7mitsuba3refINS_12FileResolverEEaSIS1_EERS2_PS1_.exit, label %7

7:                                                ; preds = %2
  %.not6.i = icmp eq ptr %1, null
  br i1 %.not6.i, label %11, label %8

8:                                                ; preds = %7
  %9 = getelementptr inbounds i8, ptr %1, i64 8
  %10 = atomicrmw add ptr %9, i32 1 seq_cst, align 4
  %.pr.i = load ptr, ptr %5, align 8
  br label %11

11:                                               ; preds = %8, %7
  %12 = phi ptr [ %.pr.i, %8 ], [ %6, %7 ]
  %.not7.i = icmp eq ptr %12, null
  br i1 %.not7.i, label %14, label %13

13:                                               ; preds = %11
  tail call void @_ZNK7mitsuba6Object7dec_refEb(ptr noundef nonnull align 8 dereferenceable(12) %12, i1 noundef zeroext true) #3
  br label %14

14:                                               ; preds = %13, %11
  store ptr %1, ptr %5, align 8
  br label %_ZN7mitsuba3refINS_12FileResolverEEaSIS1_EERS2_PS1_.exit

_ZN7mitsuba3refINS_12FileResolverEEaSIS1_EERS2_PS1_.exit: ; preds = %2, %14
  ret void
}